; Function Attrs: mustprogress nofree norecurse nosync nounwind willreturn memory(read, argmem: readwrite, inaccessiblemem: none) uwtable
define void @stbtt_GetFontVMetrics(ptr noundef readonly captures(none) %0, ptr noundef writeonly captures(address_is_null) %1, ptr noundef writeonly captures(address_is_null) %2, ptr noundef writeonly captures(address_is_null) %3) local_unnamed_addr #0 {
  %.not = icmp eq ptr %1, null
  br i1 %.not, label %21, label %5

5:                                                ; preds = %4
  %6 = getelementptr inbounds nuw i8, ptr %0, i64 8
  %7 = load ptr, ptr %6, align 8, !tbaa !23
  %8 = getelementptr inbounds nuw i8, ptr %0, i64 36
  %9 = load i32, ptr %8, align 4, !tbaa !28
  %10 = sext i32 %9 to i64
  %11 = getelementptr inbounds i8, ptr %7, i64 %10
  %12 = getelementptr inbounds nuw i8, ptr %11, i64 4
  %13 = load i8, ptr %12, align 1, !tbaa !12
  %14 = zext i8 %13 to i16
  %15 = shl nuw i16 %14, 8
  %16 = getelementptr inbounds nuw i8, ptr %11, i64 5
  %17 = load i8, ptr %16, align 1, !tbaa !12
  %18 = zext i8 %17 to i16
  %19 = or disjoint i16 %15, %18
  %20 = sext i16 %19 to i32
  store i32 %20, ptr %1, align 4, !tbaa !17
  br label %21

21:                                               ; preds = %5, %4
  %.not14 = icmp eq ptr %2, null
  br i1 %.not14, label %38, label %22

22:                                               ; preds = %21
  %23 = getelementptr inbounds nuw i8, ptr %0, i64 8
  %24 = load ptr, ptr %23, align 8, !tbaa !23
  %25 = getelementptr inbounds nuw i8, ptr %0, i64 36
  %26 = load i32, ptr %25, align 4, !tbaa !28
  %27 = sext i32 %26 to i64
  %28 = getelementptr inbounds i8, ptr %24, i64 %27
  %29 = getelementptr inbounds nuw i8, ptr %28, i64 6
  %30 = load i8, ptr %29, align 1, !tbaa !12
  %31 = zext i8 %30 to i16
  %32 = shl nuw i16 %31, 8
  %33 = getelementptr inbounds nuw i8, ptr %28, i64 7
  %34 = load i8, ptr %33, align 1, !tbaa !12
  %35 = zext i8 %34 to i16
  %36 = or disjoint i16 %32, %35
  %37 = sext i16 %36 to i32
  store i32 %37, ptr %2, align 4, !tbaa !17
  br label %38

38:                                               ; preds = %22, %21
  %.not15 = icmp eq ptr %3, null
  br i1 %.not15, label %55, label %39

39:                                               ; preds = %38
  %40 = getelementptr inbounds nuw i8, ptr %0, i64 8
  %41 = load ptr, ptr %40, align 8, !tbaa !23
  %42 = getelementptr inbounds nuw i8, ptr %0, i64 36
  %43 = load i32, ptr %42, align 4, !tbaa !28
  %44 = sext i32 %43 to i64
  %45 = getelementptr inbounds i8, ptr %41, i64 %44
  %46 = getelementptr inbounds nuw i8, ptr %45, i64 8
  %47 = load i8, ptr %46, align 1, !tbaa !12
  %48 = zext i8 %47 to i16
  %49 = shl nuw i16 %48, 8
  %50 = getelementptr inbounds nuw i8, ptr %45, i64 9
  %51 = load i8, ptr %50, align 1, !tbaa !12
  %52 = zext i8 %51 to i16
  %53 = or disjoint i16 %49, %52
  %54 = sext i16 %53 to i32
  store i32 %54, ptr %3, align 4, !tbaa !17
  br label %55

55:                                               ; preds = %39, %38
  ret void
}